target datalayout = "e-m:e-p270:32:32-p271:32:32-p272:64:64-i64:64-i128:128-f80:128-n8:16:32:64-S128"
target triple = "x86_64-pc-linux-gnu"

%union.SourceSpan = type { i64 }
%struct.DynamicScope_ = type { i32, i8, i32, i32, i32, i32, i32, ptr, i32 }
%struct.SemaContext_ = type { ptr, ptr, ptr, %struct.CallEnv, ptr, %union.SourceSpan, i32, i32, ptr, i32, ptr, i32, i32, ptr, ptr, i32, %struct.anon.85, ptr, ptr, ptr, %struct.DynamicScope_, ptr }
%struct.CallEnv = type { i16, ptr, %union.anon.84 }
%union.anon.84 = type { ptr }
%struct.anon.85 = type { i32, ptr, ptr, ptr, ptr, ptr, ptr, ptr, ptr, ptr, i8, ptr }

@.str = private unnamed_addr constant [36 x i8] c"FATAL ERROR %s -> in %s @ in %s:%d \00", align 1
@.str.1 = private unnamed_addr constant [26 x i8] c"Too deeply nested scopes.\00", align 1
@__func__.context_change_scope_with_flags = private unnamed_addr constant [32 x i8] c"context_change_scope_with_flags\00", align 1
@.str.2 = private unnamed_addr constant [118 x i8] c"generated/home/dtcxzyw/WorkSpace/Projects/compilers/llvm-opt-benchmark/bench/c3c/c3c/src/compiler/semantic_analyser.c\00", align 1
@.str.3 = private unnamed_addr constant [17 x i8] c"Too many scopes.\00", align 1

; Function Attrs: nounwind uwtable
define dso_local void @context_change_scope_with_flags(ptr noundef %0, i32 noundef %1) #0 {
  %3 = alloca ptr, align 8
  %4 = alloca i32, align 4
  %5 = alloca i32, align 4
  %6 = alloca ptr, align 8
  %7 = alloca i32, align 4
  %8 = alloca i32, align 4
  %9 = alloca i8, align 1
  %10 = alloca i8, align 1
  %11 = alloca i32, align 4
  %12 = alloca %struct.DynamicScope_, align 8
  store ptr %0, ptr %3, align 8
  store i32 %1, ptr %4, align 4
  %13 = load ptr, ptr %3, align 8
  %14 = getelementptr inbounds %struct.SemaContext_, ptr %13, i32 0, i32 20
  %15 = getelementptr inbounds %struct.DynamicScope_, ptr %14, i32 0, i32 8
  %16 = load i32, ptr %15, align 8
  %17 = add i32 %16, 1
  store i32 %17, ptr %5, align 4
  %18 = load i32, ptr %5, align 4
  %19 = icmp ugt i32 %18, 256
  br i1 %19, label %20, label %23

20:                                               ; preds = %2
  br label %21

21:                                               ; preds = %20
  call void (ptr, ...) @error_exit(ptr noundef @.str, ptr noundef @.str.1, ptr noundef @__func__.context_change_scope_with_flags, ptr noundef @.str.2, i32 noundef 13) #6
  unreachable

22:                                               ; No predecessors!
  br label %23

23:                                               ; preds = %22, %2
  %24 = load ptr, ptr %3, align 8
  %25 = getelementptr inbounds %struct.SemaContext_, ptr %24, i32 0, i32 20
  %26 = getelementptr inbounds %struct.DynamicScope_, ptr %25, i32 0, i32 7
  %27 = load ptr, ptr %26, align 8
  store ptr %27, ptr %6, align 8
  %28 = load ptr, ptr %3, align 8
  %29 = getelementptr inbounds %struct.SemaContext_, ptr %28, i32 0, i32 20
  %30 = getelementptr inbounds %struct.DynamicScope_, ptr %29, i32 0, i32 5
  %31 = load i32, ptr %30, align 4
  store i32 %31, ptr %7, align 4
  %32 = load ptr, ptr %3, align 8
  %33 = getelementptr inbounds %struct.SemaContext_, ptr %32, i32 0, i32 20
  %34 = getelementptr inbounds %struct.DynamicScope_, ptr %33, i32 0, i32 4
  %35 = load i32, ptr %34, align 8
  store i32 %35, ptr %8, align 4
  %36 = load i32, ptr %4, align 4
  %37 = and i32 %36, 24
  %38 = icmp ne i32 %37, 0
  br i1 %38, label %39, label %40

39:                                               ; preds = %23
  store ptr null, ptr %6, align 8
  store i32 0, ptr %7, align 4
  br label %40

40:                                               ; preds = %39, %23
  %41 = load i32, ptr %4, align 4
  %42 = and i32 %41, 24
  %43 = icmp ne i32 %42, 0
  %44 = zext i1 %43 to i8
  store i8 %44, ptr %9, align 1
  %45 = load i32, ptr %4, align 4
  %46 = and i32 %45, 8
  %47 = icmp ne i32 %46, 0
  br i1 %47, label %65, label %48

48:                                               ; preds = %40
  %49 = load i32, ptr %4, align 4
  %50 = and i32 %49, 16
  %51 = icmp ne i32 %50, 0
  %52 = zext i1 %51 to i8
  store i8 %52, ptr %10, align 1
  %53 = load ptr, ptr %3, align 8
  %54 = getelementptr inbounds %struct.SemaContext_, ptr %53, i32 0, i32 20
  %55 = getelementptr inbounds %struct.DynamicScope_, ptr %54, i32 0, i32 2
  %56 = load i32, ptr %55, align 8
  %57 = load i32, ptr %4, align 4
  %58 = or i32 %56, %57
  store i32 %58, ptr %4, align 4
  %59 = load i8, ptr %10, align 1
  %60 = trunc i8 %59 to i1
  br i1 %60, label %61, label %64

61:                                               ; preds = %48
  %62 = load i32, ptr %4, align 4
  %63 = and i32 %62, -7
  store i32 %63, ptr %4, align 4
  br label %64

64:                                               ; preds = %61, %48
  br label %65

65:                                               ; preds = %64, %40
  %66 = load i8, ptr %9, align 1
  %67 = trunc i8 %66 to i1
  br i1 %67, label %68, label %70

68:                                               ; preds = %65
  %69 = load i32, ptr %8, align 4
  br label %75

70:                                               ; preds = %65
  %71 = load ptr, ptr %3, align 8
  %72 = getelementptr inbounds %struct.SemaContext_, ptr %71, i32 0, i32 20
  %73 = getelementptr inbounds %struct.DynamicScope_, ptr %72, i32 0, i32 3
  %74 = load i32, ptr %73, align 4
  br label %75

75:                                               ; preds = %70, %68
  %76 = phi i32 [ %69, %68 ], [ %74, %70 ]
  store i32 %76, ptr %11, align 4
  %77 = load ptr, ptr %3, align 8
  %78 = getelementptr inbounds %struct.SemaContext_, ptr %77, i32 0, i32 20
  %79 = getelementptr inbounds %struct.DynamicScope_, ptr %12, i32 0, i32 0
  %80 = load ptr, ptr %3, align 8
  %81 = getelementptr inbounds %struct.SemaContext_, ptr %80, i32 0, i32 6
  %82 = load i32, ptr %81, align 8
  %83 = add nsw i32 %82, 1
  store i32 %83, ptr %81, align 8
  store i32 %83, ptr %79, align 8
  %84 = getelementptr inbounds %struct.DynamicScope_, ptr %12, i32 0, i32 1
  %85 = load i8, ptr %84, align 4
  %86 = and i8 %85, -2
  %87 = or i8 %86, 0
  store i8 %87, ptr %84, align 4
  %88 = getelementptr inbounds %struct.DynamicScope_, ptr %12, i32 0, i32 1
  %89 = load i8, ptr %88, align 4
  %90 = and i8 %89, -3
  %91 = or i8 %90, 0
  store i8 %91, ptr %88, align 4
  %92 = getelementptr inbounds %struct.DynamicScope_, ptr %12, i32 0, i32 2
  %93 = load i32, ptr %4, align 4
  store i32 %93, ptr %92, align 8
  %94 = getelementptr inbounds %struct.DynamicScope_, ptr %12, i32 0, i32 3
  %95 = load i32, ptr %11, align 4
  store i32 %95, ptr %94, align 4
  %96 = getelementptr inbounds %struct.DynamicScope_, ptr %12, i32 0, i32 4
  %97 = load i32, ptr %8, align 4
  store i32 %97, ptr %96, align 8
  %98 = getelementptr inbounds %struct.DynamicScope_, ptr %12, i32 0, i32 5
  %99 = load i32, ptr %7, align 4
  store i32 %99, ptr %98, align 4
  %100 = getelementptr inbounds %struct.DynamicScope_, ptr %12, i32 0, i32 6
  %101 = load i32, ptr %7, align 4
  store i32 %101, ptr %100, align 8
  %102 = getelementptr inbounds %struct.DynamicScope_, ptr %12, i32 0, i32 7
  %103 = load ptr, ptr %6, align 8
  store ptr %103, ptr %102, align 8
  %104 = getelementptr inbounds %struct.DynamicScope_, ptr %12, i32 0, i32 8
  %105 = load i32, ptr %5, align 4
  store i32 %105, ptr %104, align 8
  call void @llvm.memcpy.p0.p0.i64(ptr align 8 %78, ptr align 8 %12, i64 48, i1 false)
  %106 = load ptr, ptr %3, align 8
  %107 = getelementptr inbounds %struct.SemaContext_, ptr %106, i32 0, i32 6
  %108 = load i32, ptr %107, align 8
  %109 = icmp eq i32 %108, 0
  br i1 %109, label %110, label %113

110:                                              ; preds = %75
  br label %111

111:                                              ; preds = %110
  call void (ptr, ...) @error_exit(ptr noundef @.str, ptr noundef @.str.3, ptr noundef @__func__.context_change_scope_with_flags, ptr noundef @.str.2, i32 noundef 50) #6
  unreachable

112:                                              ; No predecessors!
  br label %113

113:                                              ; preds = %112, %75
  ret void
}