; Function Attrs: nounwind uwtable
define dso_local void @context_change_scope_with_flags(ptr nocapture noundef %0, i32 noundef %1) local_unnamed_addr #0 {
  %3 = getelementptr inbounds i8, ptr %0, i64 248
  %4 = getelementptr inbounds i8, ptr %0, i64 288
  %5 = load i32, ptr %4, align 8
  %6 = add i32 %5, 1
  %7 = icmp ugt i32 %6, 256
  br i1 %7, label %8, label %9

8:                                                ; preds = %2
  tail call void (ptr, ...) @error_exit(ptr noundef nonnull @.str, ptr noundef nonnull @.str.1, ptr noundef nonnull @__func__.context_change_scope_with_flags, ptr noundef nonnull @.str.2, i32 noundef 13) #9
  unreachable

9:                                                ; preds = %2
  %10 = getelementptr inbounds i8, ptr %0, i64 280
  %11 = load ptr, ptr %10, align 8
  %12 = getelementptr inbounds i8, ptr %0, i64 268
  %13 = load i32, ptr %12, align 4
  %14 = getelementptr inbounds i8, ptr %0, i64 264
  %15 = load i32, ptr %14, align 8
  %16 = and i32 %1, 24
  %.not = icmp eq i32 %16, 0
  %spec.select = select i1 %.not, i32 %13, i32 0
  %spec.select33 = select i1 %.not, ptr %11, ptr null
  %17 = and i32 %1, 8
  %.not31 = icmp eq i32 %17, 0
  br i1 %.not31, label %18, label %24

18:                                               ; preds = %9
  %19 = and i32 %1, 16
  %.not32 = icmp eq i32 %19, 0
  %20 = getelementptr inbounds i8, ptr %0, i64 256
  %21 = load i32, ptr %20, align 8
  %22 = or i32 %21, %1
  %23 = and i32 %22, -7
  %spec.select34 = select i1 %.not32, i32 %22, i32 %23
  br label %24

24:                                               ; preds = %18, %9
  %.0 = phi i32 [ %1, %9 ], [ %spec.select34, %18 ]
  br i1 %.not, label %25, label %28

25:                                               ; preds = %24
  %26 = getelementptr inbounds i8, ptr %0, i64 260
  %27 = load i32, ptr %26, align 4
  br label %28

28:                                               ; preds = %24, %25
  %29 = phi i32 [ %27, %25 ], [ %15, %24 ]
  %30 = getelementptr inbounds i8, ptr %0, i64 64
  %31 = load i32, ptr %30, align 8
  %32 = add nsw i32 %31, 1
  store i32 %32, ptr %30, align 8
  store i32 %32, ptr %3, align 8
  %.sroa.2.0..sroa_idx = getelementptr inbounds i8, ptr %0, i64 252
  store i8 0, ptr %.sroa.2.0..sroa_idx, align 4
  %.sroa.62.0..sroa_idx = getelementptr inbounds i8, ptr %0, i64 256
  store i32 %.0, ptr %.sroa.62.0..sroa_idx, align 8
  %.sroa.7.0..sroa_idx = getelementptr inbounds i8, ptr %0, i64 260
  store i32 %29, ptr %.sroa.7.0..sroa_idx, align 4
  store i32 %spec.select, ptr %12, align 4
  %.sroa.10.0..sroa_idx = getelementptr inbounds i8, ptr %0, i64 272
  store i32 %spec.select, ptr %.sroa.10.0..sroa_idx, align 8
  store ptr %spec.select33, ptr %10, align 8
  store i32 %6, ptr %4, align 8
  %33 = icmp eq i32 %32, 0
  br i1 %33, label %34, label %35

34:                                               ; preds = %28
  tail call void (ptr, ...) @error_exit(ptr noundef nonnull @.str, ptr noundef nonnull @.str.3, ptr noundef nonnull @__func__.context_change_scope_with_flags, ptr noundef nonnull @.str.2, i32 noundef 50) #9
  unreachable

35:                                               ; preds = %28
  ret void
}